; Function Attrs: mustprogress nounwind uwtable
define dso_local noundef zeroext i1 @_ZN4llvm20isValidAsAccessGroupEPNS_6MDNodeE(ptr noundef %0) local_unnamed_addr #0 {
  %2 = getelementptr inbounds i8, ptr %0, i64 -16
  %3 = load i64, ptr %2, align 8
  %4 = and i64 %3, 2
  %.not.i.i = icmp eq i64 %4, 0
  br i1 %.not.i.i, label %5, label %9

5:                                                ; preds = %1
  %6 = trunc i64 %3 to i32
  %7 = lshr i32 %6, 6
  %8 = and i32 %7, 15
  br label %_ZNK4llvm6MDNode14getNumOperandsEv.exit

9:                                                ; preds = %1
  %10 = getelementptr inbounds i8, ptr %0, i64 -32
  %11 = tail call noundef i64 @_ZNK4llvm15SmallVectorBaseIjE4sizeEv(ptr noundef nonnull align 8 dereferenceable(16) %10) #19
  %12 = trunc i64 %11 to i32
  br label %_ZNK4llvm6MDNode14getNumOperandsEv.exit

_ZNK4llvm6MDNode14getNumOperandsEv.exit:          ; preds = %5, %9
  %.0.i.i = phi i32 [ %12, %9 ], [ %8, %5 ]
  %13 = icmp eq i32 %.0.i.i, 0
  br i1 %13, label %14, label %19

14:                                               ; preds = %_ZNK4llvm6MDNode14getNumOperandsEv.exit
  %15 = getelementptr inbounds nuw i8, ptr %0, i64 1
  %16 = load i8, ptr %15, align 1
  %17 = and i8 %16, 127
  %18 = icmp eq i8 %17, 1
  br label %19

19:                                               ; preds = %14, %_ZNK4llvm6MDNode14getNumOperandsEv.exit
  %20 = phi i1 [ false, %_ZNK4llvm6MDNode14getNumOperandsEv.exit ], [ %18, %14 ]
  ret i1 %20
}